; Function Attrs: nounwind uwtable
define ptr @l_List_foldl___at___private_Lean_Data_Lsp_Communication_0__IO_FS_Stream_readLspHeader___spec__3(ptr noundef %0, ptr noundef %1) local_unnamed_addr #0 {
  br label %lean_dec.exit

lean_dec.exit:                                    ; preds = %lean_dec.exit.backedge, %2
  %.021 = phi ptr [ %1, %2 ], [ %17, %lean_dec.exit.backedge ]
  %.0 = phi ptr [ %0, %2 ], [ %30, %lean_dec.exit.backedge ]
  %3 = ptrtoint ptr %.021 to i64
  %4 = and i64 %3, 1
  %.not.i22 = icmp eq i64 %4, 0
  br i1 %.not.i22, label %8, label %5

5:                                                ; preds = %lean_dec.exit
  %6 = lshr i64 %3, 1
  %7 = trunc i64 %6 to i32
  br label %lean_obj_tag.exit

8:                                                ; preds = %lean_dec.exit
  %9 = getelementptr i8, ptr %.021, i64 4
  %.val.i = load i32, ptr %9, align 4
  %10 = lshr i32 %.val.i, 24
  br label %lean_obj_tag.exit

lean_obj_tag.exit:                                ; preds = %5, %8
  %.0.i = phi i32 [ %7, %5 ], [ %10, %8 ]
  %11 = icmp eq i32 %.0.i, 0
  br i1 %11, label %12, label %13

12:                                               ; preds = %lean_obj_tag.exit
  ret ptr %.0

13:                                               ; preds = %lean_obj_tag.exit
  %14 = getelementptr inbounds nuw i8, ptr %.021, i64 8
  %15 = load ptr, ptr %14, align 8, !tbaa !4
  %16 = getelementptr inbounds nuw i8, ptr %.021, i64 16
  %17 = load ptr, ptr %16, align 8, !tbaa !4
  %18 = load ptr, ptr @l_List_foldl___at___private_Lean_Data_Lsp_Communication_0__IO_FS_Stream_readLspHeader___spec__3___closed__1, align 8, !tbaa !4
  %19 = tail call ptr @lean_string_append(ptr noundef %.0, ptr noundef %18) #4
  %20 = getelementptr inbounds nuw i8, ptr %15, i64 8
  %21 = load ptr, ptr %20, align 8, !tbaa !4
  %22 = getelementptr inbounds nuw i8, ptr %15, i64 16
  %23 = load ptr, ptr %22, align 8, !tbaa !4
  %24 = load ptr, ptr @l_List_foldl___at___private_Lean_Data_Lsp_Communication_0__IO_FS_Stream_readLspHeader___spec__3___closed__2, align 8, !tbaa !4
  %25 = tail call ptr @lean_string_append(ptr noundef %24, ptr noundef %21) #4
  %26 = tail call ptr @lean_string_append(ptr noundef %25, ptr noundef %18) #4
  %27 = tail call ptr @lean_string_append(ptr noundef %26, ptr noundef %23) #4
  %28 = load ptr, ptr @l_List_foldl___at___private_Lean_Data_Lsp_Communication_0__IO_FS_Stream_readLspHeader___spec__3___closed__3, align 8, !tbaa !4
  %29 = tail call ptr @lean_string_append(ptr noundef %27, ptr noundef %28) #4
  %30 = tail call ptr @lean_string_append(ptr noundef %19, ptr noundef %29) #4
  %31 = ptrtoint ptr %29 to i64
  %32 = and i64 %31, 1
  %.not = icmp eq i64 %32, 0
  br i1 %.not, label %33, label %lean_dec.exit.backedge

33:                                               ; preds = %13
  %34 = load i32, ptr %29, align 4, !tbaa !10
  %35 = icmp sgt i32 %34, 1
  br i1 %35, label %36, label %38, !prof !13

36:                                               ; preds = %33
  %37 = add nsw i32 %34, -1
  store i32 %37, ptr %29, align 4, !tbaa !10
  br label %lean_dec.exit.backedge

38:                                               ; preds = %33
  %.not.i = icmp eq i32 %34, 0
  br i1 %.not.i, label %lean_dec.exit.backedge, label %39

39:                                               ; preds = %38
  tail call void @lean_dec_ref_cold(ptr noundef nonnull %29) #4
  br label %lean_dec.exit.backedge

lean_dec.exit.backedge:                           ; preds = %39, %38, %36, %13
  br label %lean_dec.exit
}